target datalayout = "e-m:e-p270:32:32-p271:32:32-p272:64:64-i64:64-i128:128-f80:128-n8:16:32:64-S128"
target triple = "x86_64-pc-linux-gnu"

%struct.sockaddr = type { i16, [14 x i8] }
%struct.sockaddr_in = type { i16, i16, %struct.in_addr, [8 x i8] }
%struct.in_addr = type { i32 }
%struct.sockaddr_in6 = type { i16, i16, i32, %struct.in6_addr, i32 }
%struct.in6_addr = type { %union.anon }
%union.anon = type { [4 x i32] }

@.str.5 = private unnamed_addr constant [50 x i8] c"unhandled sa_family %d passed to pmix_samenetwork\00", align 1

; Function Attrs: inlinehint nounwind uwtable
define internal i32 @__bswap_32(i32 noundef %0) #6 {
  %2 = alloca i32, align 4
  store i32 %0, ptr %2, align 4, !tbaa !15
  %3 = load i32, ptr %2, align 4, !tbaa !15
  %4 = and i32 %3, -16777216
  %5 = lshr i32 %4, 24
  %6 = load i32, ptr %2, align 4, !tbaa !15
  %7 = and i32 %6, 16711680
  %8 = lshr i32 %7, 8
  %9 = or i32 %5, %8
  %10 = load i32, ptr %2, align 4, !tbaa !15
  %11 = and i32 %10, 65280
  %12 = shl i32 %11, 8
  %13 = or i32 %9, %12
  %14 = load i32, ptr %2, align 4, !tbaa !15
  %15 = and i32 %14, 255
  %16 = shl i32 %15, 24
  %17 = or i32 %13, %16
  ret i32 %17
}

; Function Attrs: nounwind uwtable
define i32 @pmix_net_prefix2netmask(i32 noundef %0) #0 {
  %2 = alloca i32, align 4
  store i32 %0, ptr %2, align 4, !tbaa !15
  %3 = load i32, ptr %2, align 4, !tbaa !15
  %4 = shl i32 1, %3
  %5 = sub nsw i32 %4, 1
  %6 = load i32, ptr %2, align 4, !tbaa !15
  %7 = sub i32 32, %6
  %8 = shl i32 %5, %7
  %9 = call i32 @__bswap_32(i32 noundef %8)
  ret i32 %9
}

; Function Attrs: nounwind uwtable
define zeroext i1 @pmix_net_samenetwork(ptr noundef %0, ptr noundef %1, i32 noundef %2) #0 {
  %4 = alloca i1, align 1
  %5 = alloca ptr, align 8
  %6 = alloca ptr, align 8
  %7 = alloca i32, align 4
  %8 = alloca i32, align 4
  %9 = alloca %struct.sockaddr, align 2
  %10 = alloca %struct.sockaddr, align 2
  %11 = alloca i32, align 4
  %12 = alloca %struct.sockaddr_in, align 4
  %13 = alloca %struct.sockaddr_in, align 4
  %14 = alloca i32, align 4
  %15 = alloca %struct.sockaddr_in6, align 4
  %16 = alloca %struct.sockaddr_in6, align 4
  %17 = alloca ptr, align 8
  %18 = alloca ptr, align 8
  store ptr %0, ptr %5, align 8, !tbaa !40
  store ptr %1, ptr %6, align 8, !tbaa !40
  store i32 %2, ptr %7, align 4, !tbaa !15
  call void @llvm.lifetime.start.p0(i64 4, ptr %8) #10
  call void @llvm.lifetime.start.p0(i64 16, ptr %9) #10
  call void @llvm.lifetime.start.p0(i64 16, ptr %10) #10
  %19 = load ptr, ptr %5, align 8, !tbaa !40
  call void @llvm.memcpy.p0.p0.i64(ptr align 2 %9, ptr align 8 %19, i64 16, i1 false)
  %20 = load ptr, ptr %6, align 8, !tbaa !40
  call void @llvm.memcpy.p0.p0.i64(ptr align 2 %10, ptr align 8 %20, i64 16, i1 false)
  %21 = getelementptr inbounds nuw %struct.sockaddr, ptr %9, i32 0, i32 0
  %22 = load i16, ptr %21, align 2, !tbaa !27
  %23 = zext i16 %22 to i32
  %24 = getelementptr inbounds nuw %struct.sockaddr, ptr %10, i32 0, i32 0
  %25 = load i16, ptr %24, align 2, !tbaa !27
  %26 = zext i16 %25 to i32
  %27 = icmp ne i32 %23, %26
  br i1 %27, label %28, label %29

28:                                               ; preds = %3
  store i1 false, ptr %4, align 1
  store i32 1, ptr %11, align 4
  br label %96

29:                                               ; preds = %3
  %30 = getelementptr inbounds nuw %struct.sockaddr, ptr %9, i32 0, i32 0
  %31 = load i16, ptr %30, align 2, !tbaa !27
  %32 = zext i16 %31 to i32
  switch i32 %32, label %91 [
    i32 2, label %33
    i32 10, label %58
  ]

33:                                               ; preds = %29
  %34 = load i32, ptr %7, align 4, !tbaa !15
  %35 = icmp eq i32 0, %34
  br i1 %35, label %36, label %37

36:                                               ; preds = %33
  store i32 32, ptr %8, align 4, !tbaa !15
  br label %39

37:                                               ; preds = %33
  %38 = load i32, ptr %7, align 4, !tbaa !15
  store i32 %38, ptr %8, align 4, !tbaa !15
  br label %39

39:                                               ; preds = %37, %36
  call void @llvm.lifetime.start.p0(i64 16, ptr %12) #10
  call void @llvm.lifetime.start.p0(i64 16, ptr %13) #10
  %40 = load ptr, ptr %5, align 8, !tbaa !40
  call void @llvm.memcpy.p0.p0.i64(ptr align 4 %12, ptr align 8 %40, i64 16, i1 false)
  %41 = load ptr, ptr %6, align 8, !tbaa !40
  call void @llvm.memcpy.p0.p0.i64(ptr align 4 %13, ptr align 8 %41, i64 16, i1 false)
  call void @llvm.lifetime.start.p0(i64 4, ptr %14) #10
  %42 = load i32, ptr %8, align 4, !tbaa !15
  %43 = call i32 @pmix_net_prefix2netmask(i32 noundef %42)
  store i32 %43, ptr %14, align 4, !tbaa !15
  %44 = getelementptr inbounds nuw %struct.sockaddr_in, ptr %12, i32 0, i32 2
  %45 = getelementptr inbounds nuw %struct.in_addr, ptr %44, i32 0, i32 0
  %46 = load i32, ptr %45, align 4, !tbaa !32
  %47 = load i32, ptr %14, align 4, !tbaa !15
  %48 = and i32 %46, %47
  %49 = getelementptr inbounds nuw %struct.sockaddr_in, ptr %13, i32 0, i32 2
  %50 = getelementptr inbounds nuw %struct.in_addr, ptr %49, i32 0, i32 0
  %51 = load i32, ptr %50, align 4, !tbaa !32
  %52 = load i32, ptr %14, align 4, !tbaa !15
  %53 = and i32 %51, %52
  %54 = icmp eq i32 %48, %53
  br i1 %54, label %55, label %56

55:                                               ; preds = %39
  store i1 true, ptr %4, align 1
  store i32 1, ptr %11, align 4
  br label %57

56:                                               ; preds = %39
  store i1 false, ptr %4, align 1
  store i32 1, ptr %11, align 4
  br label %57

57:                                               ; preds = %56, %55
  call void @llvm.lifetime.end.p0(i64 4, ptr %14) #10
  call void @llvm.lifetime.end.p0(i64 16, ptr %13) #10
  call void @llvm.lifetime.end.p0(i64 16, ptr %12) #10
  br label %96

58:                                               ; preds = %29
  call void @llvm.lifetime.start.p0(i64 28, ptr %15) #10
  call void @llvm.lifetime.start.p0(i64 28, ptr %16) #10
  %59 = load ptr, ptr %5, align 8, !tbaa !40
  call void @llvm.memcpy.p0.p0.i64(ptr align 4 %15, ptr align 8 %59, i64 28, i1 false)
  %60 = load ptr, ptr %6, align 8, !tbaa !40
  call void @llvm.memcpy.p0.p0.i64(ptr align 4 %16, ptr align 8 %60, i64 28, i1 false)
  call void @llvm.lifetime.start.p0(i64 8, ptr %17) #10
  %61 = getelementptr inbounds nuw %struct.sockaddr_in6, ptr %15, i32 0, i32 3
  store ptr %61, ptr %17, align 8, !tbaa !37
  call void @llvm.lifetime.start.p0(i64 8, ptr %18) #10
  %62 = getelementptr inbounds nuw %struct.sockaddr_in6, ptr %16, i32 0, i32 3
  store ptr %62, ptr %18, align 8, !tbaa !37
  %63 = load i32, ptr %7, align 4, !tbaa !15
  %64 = icmp eq i32 0, %63
  br i1 %64, label %65, label %66

65:                                               ; preds = %58
  store i32 64, ptr %8, align 4, !tbaa !15
  br label %68

66:                                               ; preds = %58
  %67 = load i32, ptr %7, align 4, !tbaa !15
  store i32 %67, ptr %8, align 4, !tbaa !15
  br label %68

68:                                               ; preds = %66, %65
  %69 = load i32, ptr %8, align 4, !tbaa !15
  %70 = icmp eq i32 64, %69
  br i1 %70, label %71, label %89

71:                                               ; preds = %68
  %72 = load ptr, ptr %17, align 8, !tbaa !37
  %73 = getelementptr inbounds i32, ptr %72, i64 0
  %74 = load i32, ptr %73, align 4, !tbaa !15
  %75 = load ptr, ptr %18, align 8, !tbaa !37
  %76 = getelementptr inbounds i32, ptr %75, i64 0
  %77 = load i32, ptr %76, align 4, !tbaa !15
  %78 = icmp eq i32 %74, %77
  br i1 %78, label %79, label %88

79:                                               ; preds = %71
  %80 = load ptr, ptr %17, align 8, !tbaa !37
  %81 = getelementptr inbounds i32, ptr %80, i64 1
  %82 = load i32, ptr %81, align 4, !tbaa !15
  %83 = load ptr, ptr %18, align 8, !tbaa !37
  %84 = getelementptr inbounds i32, ptr %83, i64 1
  %85 = load i32, ptr %84, align 4, !tbaa !15
  %86 = icmp eq i32 %82, %85
  br i1 %86, label %87, label %88

87:                                               ; preds = %79
  store i1 true, ptr %4, align 1
  store i32 1, ptr %11, align 4
  br label %90

88:                                               ; preds = %79, %71
  br label %89

89:                                               ; preds = %88, %68
  store i1 false, ptr %4, align 1
  store i32 1, ptr %11, align 4
  br label %90

90:                                               ; preds = %89, %87
  call void @llvm.lifetime.end.p0(i64 8, ptr %18) #10
  call void @llvm.lifetime.end.p0(i64 8, ptr %17) #10
  call void @llvm.lifetime.end.p0(i64 28, ptr %16) #10
  call void @llvm.lifetime.end.p0(i64 28, ptr %15) #10
  br label %96

91:                                               ; preds = %29
  %92 = getelementptr inbounds nuw %struct.sockaddr, ptr %9, i32 0, i32 0
  %93 = load i16, ptr %92, align 2, !tbaa !27
  %94 = zext i16 %93 to i32
  call void (i32, ptr, ...) @pmix_output(i32 noundef 0, ptr noundef @.str.5, i32 noundef %94)
  br label %95

95:                                               ; preds = %91
  store i1 false, ptr %4, align 1
  store i32 1, ptr %11, align 4
  br label %96

96:                                               ; preds = %95, %90, %57, %28
  call void @llvm.lifetime.end.p0(i64 16, ptr %10) #10
  call void @llvm.lifetime.end.p0(i64 16, ptr %9) #10
  call void @llvm.lifetime.end.p0(i64 4, ptr %8) #10
  %97 = load i1, ptr %4, align 1
  ret i1 %97
}