; Function Attrs: nounwind uwtable
define zeroext i1 @pmix_net_samenetwork(ptr noundef readonly captures(none) %0, ptr noundef readonly captures(none) %1, i32 noundef %2) local_unnamed_addr #0 {
  %.sroa.010.0.copyload = load i16, ptr %0, align 8
  %.sroa.08.0.copyload = load i16, ptr %1, align 8
  %4 = zext i16 %.sroa.010.0.copyload to i32
  %.not = icmp eq i16 %.sroa.010.0.copyload, %.sroa.08.0.copyload
  br i1 %.not, label %5, label %20

5:                                                ; preds = %3
  switch i16 %.sroa.010.0.copyload, label %19 [
    i16 2, label %6
    i16 10, label %15
  ]

6:                                                ; preds = %5
  %7 = icmp eq i32 %2, 0
  %. = select i1 %7, i32 32, i32 %2
  %.sroa.36.0..sroa_idx = getelementptr inbounds nuw i8, ptr %0, i64 4
  %.sroa.36.0.copyload = load i32, ptr %.sroa.36.0..sroa_idx, align 4
  %.sroa.3.0..sroa_idx = getelementptr inbounds nuw i8, ptr %1, i64 4
  %.sroa.3.0.copyload = load i32, ptr %.sroa.3.0..sroa_idx, align 4
  %notmask.i = shl nsw i32 -1, %.
  %8 = xor i32 %notmask.i, -1
  %9 = sub i32 32, %.
  %10 = shl i32 %8, %9
  %11 = tail call noundef i32 @llvm.bswap.i32(i32 %10)
  %12 = xor i32 %.sroa.3.0.copyload, %.sroa.36.0.copyload
  %13 = and i32 %12, %11
  %14 = icmp eq i32 %13, 0
  br label %20

15:                                               ; preds = %5
  %.sroa.3.0..sroa_idx29 = getelementptr inbounds nuw i8, ptr %0, i64 8
  %.sroa.3.0.copyload30 = load i32, ptr %.sroa.3.0..sroa_idx29, align 8
  %.sroa.4.0..sroa_idx31 = getelementptr inbounds nuw i8, ptr %0, i64 12
  %.sroa.4.0.copyload32 = load i32, ptr %.sroa.4.0..sroa_idx31, align 4
  %.sroa.334.0..sroa_idx = getelementptr inbounds nuw i8, ptr %1, i64 8
  %.sroa.334.0.copyload = load i32, ptr %.sroa.334.0..sroa_idx, align 8
  %.sroa.435.0..sroa_idx = getelementptr inbounds nuw i8, ptr %1, i64 12
  %.sroa.435.0.copyload = load i32, ptr %.sroa.435.0..sroa_idx, align 4
  %16 = and i32 %2, -65
  %.127 = icmp eq i32 %16, 0
  %17 = icmp eq i32 %.sroa.3.0.copyload30, %.sroa.334.0.copyload
  %or.cond = select i1 %.127, i1 %17, i1 false
  %18 = icmp eq i32 %.sroa.4.0.copyload32, %.sroa.435.0.copyload
  %or.cond40 = select i1 %or.cond, i1 %18, i1 false
  br label %20

19:                                               ; preds = %5
  tail call void (i32, ptr, ...) @pmix_output(i32 noundef 0, ptr noundef nonnull @.str.5, i32 noundef %4) #15
  br label %20

20:                                               ; preds = %15, %3, %19, %6
  %.0 = phi i1 [ false, %19 ], [ %14, %6 ], [ false, %3 ], [ %or.cond40, %15 ]
  ret i1 %.0
}